target datalayout = "e-m:e-p270:32:32-p271:32:32-p272:64:64-i64:64-i128:128-f80:128-n8:16:32:64-S128"
target triple = "x86_64-pc-linux-gnu"

%struct.strbuf = type { i64, i64, ptr }
%struct.strvec = type { ptr, i64, i64 }
%struct.hashmap = type { ptr, ptr, ptr, i32, i32, i32, i32, i8 }
%struct.pattern_list = type { i32, i32, ptr, ptr, i32, i32, %struct.hashmap, %struct.hashmap }
%struct.hashmap_iter = type { ptr, ptr, i32 }
%struct.pattern_entry = type { %struct.hashmap_entry, ptr, i64 }
%struct.hashmap_entry = type { ptr, i32 }

@core_apply_sparse_checkout = external global i32, align 4
@core_sparse_checkout_cone = external global i32, align 4
@.str.8 = private unnamed_addr constant [1 x i8] zeroinitializer, align 1
@strbuf_slopbuf = external global [0 x i8], align 1
@.str.36 = private unnamed_addr constant [11 x i8] c"./strbuf.h\00", align 1
@.str.37 = private unnamed_addr constant [30 x i8] c"strbuf_setlen() beyond buffer\00", align 1
@stdin = external global ptr, align 8
@__const.add_patterns_cone_mode.buffer = private unnamed_addr constant %struct.strbuf { i64 0, i64 0, ptr @strbuf_slopbuf }, align 8
@.str.55 = private unnamed_addr constant [49 x i8] c"unable to load existing sparse-checkout patterns\00", align 1
@.str.56 = private unnamed_addr constant [55 x i8] c"existing sparse-checkout patterns do not use cone mode\00", align 1

; Function Attrs: inlinehint nounwind uwtable
define internal void @strbuf_addstr(ptr noundef %0, ptr noundef %1) #4 {
  %3 = alloca ptr, align 8
  %4 = alloca ptr, align 8
  store ptr %0, ptr %3, align 8, !tbaa !152
  store ptr %1, ptr %4, align 8, !tbaa !11
  %5 = load ptr, ptr %3, align 8, !tbaa !152
  %6 = load ptr, ptr %4, align 8, !tbaa !11
  %7 = load ptr, ptr %4, align 8, !tbaa !11
  %8 = call i64 @strlen(ptr noundef %7) #11
  call void @strbuf_add(ptr noundef %5, ptr noundef %6, i64 noundef %8)
  ret void
}

; Function Attrs: inlinehint nounwind uwtable
define internal void @strbuf_setlen(ptr noundef %0, i64 noundef %1) #4 {
  %3 = alloca ptr, align 8
  %4 = alloca i64, align 8
  store ptr %0, ptr %3, align 8, !tbaa !152
  store i64 %1, ptr %4, align 8, !tbaa !91
  %5 = load i64, ptr %4, align 8, !tbaa !91
  %6 = load ptr, ptr %3, align 8, !tbaa !152
  %7 = getelementptr inbounds nuw %struct.strbuf, ptr %6, i32 0, i32 0
  %8 = load i64, ptr %7, align 8, !tbaa !154
  %9 = icmp ne i64 %8, 0
  br i1 %9, label %10, label %15

10:                                               ; preds = %2
  %11 = load ptr, ptr %3, align 8, !tbaa !152
  %12 = getelementptr inbounds nuw %struct.strbuf, ptr %11, i32 0, i32 0
  %13 = load i64, ptr %12, align 8, !tbaa !154
  %14 = sub i64 %13, 1
  br label %16

15:                                               ; preds = %2
  br label %16

16:                                               ; preds = %15, %10
  %17 = phi i64 [ %14, %10 ], [ 0, %15 ]
  %18 = icmp ugt i64 %5, %17
  br i1 %18, label %19, label %20

19:                                               ; preds = %16
  call void (ptr, i32, ptr, ...) @BUG_fl(ptr noundef @.str.36, i32 noundef 167, ptr noundef @.str.37) #10
  unreachable

20:                                               ; preds = %16
  %21 = load i64, ptr %4, align 8, !tbaa !91
  %22 = load ptr, ptr %3, align 8, !tbaa !152
  %23 = getelementptr inbounds nuw %struct.strbuf, ptr %22, i32 0, i32 1
  store i64 %21, ptr %23, align 8, !tbaa !134
  %24 = load ptr, ptr %3, align 8, !tbaa !152
  %25 = getelementptr inbounds nuw %struct.strbuf, ptr %24, i32 0, i32 2
  %26 = load ptr, ptr %25, align 8, !tbaa !148
  %27 = icmp ne ptr %26, @strbuf_slopbuf
  br i1 %27, label %28, label %34

28:                                               ; preds = %20
  %29 = load ptr, ptr %3, align 8, !tbaa !152
  %30 = getelementptr inbounds nuw %struct.strbuf, ptr %29, i32 0, i32 2
  %31 = load ptr, ptr %30, align 8, !tbaa !148
  %32 = load i64, ptr %4, align 8, !tbaa !91
  %33 = getelementptr inbounds nuw i8, ptr %31, i64 %32
  store i8 0, ptr %33, align 1, !tbaa !90
  br label %35

34:                                               ; preds = %20
  br label %35

35:                                               ; preds = %34, %28
  ret void
}

; Function Attrs: inlinehint nounwind uwtable
define internal ptr @container_of_or_null_offset(ptr noundef %0, i64 noundef %1) #4 {
  %3 = alloca ptr, align 8
  %4 = alloca i64, align 8
  store ptr %0, ptr %3, align 8, !tbaa !15
  store i64 %1, ptr %4, align 8, !tbaa !91
  %5 = load ptr, ptr %3, align 8, !tbaa !15
  %6 = icmp ne ptr %5, null
  br i1 %6, label %7, label %12

7:                                                ; preds = %2
  %8 = load ptr, ptr %3, align 8, !tbaa !15
  %9 = load i64, ptr %4, align 8, !tbaa !91
  %10 = sub i64 0, %9
  %11 = getelementptr inbounds i8, ptr %8, i64 %10
  br label %13

12:                                               ; preds = %2
  br label %13

13:                                               ; preds = %12, %7
  %14 = phi ptr [ %11, %7 ], [ null, %12 ]
  ret ptr %14
}

; Function Attrs: inlinehint nounwind uwtable
define internal ptr @hashmap_iter_first(ptr noundef %0, ptr noundef %1) #4 {
  %3 = alloca ptr, align 8
  %4 = alloca ptr, align 8
  store ptr %0, ptr %3, align 8, !tbaa !92
  store ptr %1, ptr %4, align 8, !tbaa !94
  %5 = load ptr, ptr %3, align 8, !tbaa !92
  %6 = load ptr, ptr %4, align 8, !tbaa !94
  call void @hashmap_iter_init(ptr noundef %5, ptr noundef %6)
  %7 = load ptr, ptr %4, align 8, !tbaa !94
  %8 = call ptr @hashmap_iter_next(ptr noundef %7)
  ret ptr %8
}

; Function Attrs: nounwind uwtable
define internal void @add_patterns_literal(i32 noundef %0, ptr noundef %1, ptr noundef %2, i32 noundef %3) #0 {
  %5 = alloca i32, align 4
  %6 = alloca ptr, align 8
  %7 = alloca ptr, align 8
  %8 = alloca i32, align 4
  %9 = alloca ptr, align 8
  store i32 %0, ptr %5, align 4, !tbaa !4
  store ptr %1, ptr %6, align 8, !tbaa !8
  store ptr %2, ptr %7, align 8, !tbaa !96
  store i32 %3, ptr %8, align 4, !tbaa !4
  call void @llvm.lifetime.start.p0(i64 8, ptr %9) #9
  %10 = call ptr @get_sparse_checkout_filename()
  store ptr %10, ptr %9, align 8, !tbaa !11
  %11 = load ptr, ptr %9, align 8, !tbaa !11
  %12 = load ptr, ptr %7, align 8, !tbaa !96
  %13 = call i32 @add_patterns_from_file_to_list(ptr noundef %11, ptr noundef @.str.8, i32 noundef 0, ptr noundef %12, ptr noundef null, i32 noundef 0)
  %14 = icmp ne i32 %13, 0
  br i1 %14, label %15, label %17

15:                                               ; preds = %4
  %16 = call ptr @_(ptr noundef @.str.55)
  call void (ptr, ...) @die(ptr noundef %16) #10
  unreachable

17:                                               ; preds = %4
  %18 = load ptr, ptr %9, align 8, !tbaa !11
  call void @free(ptr noundef %18) #9
  %19 = load ptr, ptr %7, align 8, !tbaa !96
  %20 = load i32, ptr %5, align 4, !tbaa !4
  %21 = load ptr, ptr %6, align 8, !tbaa !8
  %22 = load i32, ptr %8, align 4, !tbaa !4
  %23 = icmp ne i32 %22, 0
  br i1 %23, label %24, label %26

24:                                               ; preds = %17
  %25 = load ptr, ptr @stdin, align 8, !tbaa !65
  br label %27

26:                                               ; preds = %17
  br label %27

27:                                               ; preds = %26, %24
  %28 = phi ptr [ %25, %24 ], [ null, %26 ]
  call void @add_patterns_from_input(ptr noundef %19, i32 noundef %20, ptr noundef %21, ptr noundef %28)
  call void @llvm.lifetime.end.p0(i64 8, ptr %9) #9
  ret void
}

; Function Attrs: nounwind uwtable
define internal void @add_patterns_cone_mode(i32 noundef %0, ptr noundef %1, ptr noundef %2, i32 noundef %3) #0 {
  %5 = alloca i32, align 4
  %6 = alloca ptr, align 8
  %7 = alloca ptr, align 8
  %8 = alloca i32, align 4
  %9 = alloca %struct.strbuf, align 8
  %10 = alloca ptr, align 8
  %11 = alloca %struct.hashmap_iter, align 8
  %12 = alloca %struct.pattern_list, align 8
  %13 = alloca ptr, align 8
  store i32 %0, ptr %5, align 4, !tbaa !4
  store ptr %1, ptr %6, align 8, !tbaa !8
  store ptr %2, ptr %7, align 8, !tbaa !96
  store i32 %3, ptr %8, align 4, !tbaa !4
  call void @llvm.lifetime.start.p0(i64 24, ptr %9) #9
  call void @llvm.memcpy.p0.p0.i64(ptr align 8 %9, ptr align 8 @__const.add_patterns_cone_mode.buffer, i64 24, i1 false)
  call void @llvm.lifetime.start.p0(i64 8, ptr %10) #9
  call void @llvm.lifetime.start.p0(i64 24, ptr %11) #9
  call void @llvm.lifetime.start.p0(i64 128, ptr %12) #9
  call void @llvm.lifetime.start.p0(i64 8, ptr %13) #9
  %14 = call ptr @get_sparse_checkout_filename()
  store ptr %14, ptr %13, align 8, !tbaa !11
  %15 = load ptr, ptr %7, align 8, !tbaa !96
  %16 = load i32, ptr %5, align 4, !tbaa !4
  %17 = load ptr, ptr %6, align 8, !tbaa !8
  %18 = load i32, ptr %8, align 4, !tbaa !4
  %19 = icmp ne i32 %18, 0
  br i1 %19, label %20, label %22

20:                                               ; preds = %4
  %21 = load ptr, ptr @stdin, align 8, !tbaa !65
  br label %23

22:                                               ; preds = %4
  br label %23

23:                                               ; preds = %22, %20
  %24 = phi ptr [ %21, %20 ], [ null, %22 ]
  call void @add_patterns_from_input(ptr noundef %15, i32 noundef %16, ptr noundef %17, ptr noundef %24)
  call void @llvm.memset.p0.i64(ptr align 8 %12, i8 0, i64 128, i1 false)
  %25 = load i32, ptr @core_sparse_checkout_cone, align 4, !tbaa !4
  %26 = getelementptr inbounds nuw %struct.pattern_list, ptr %12, i32 0, i32 4
  store i32 %25, ptr %26, align 8, !tbaa !48
  %27 = load ptr, ptr %13, align 8, !tbaa !11
  %28 = call i32 @add_patterns_from_file_to_list(ptr noundef %27, ptr noundef @.str.8, i32 noundef 0, ptr noundef %12, ptr noundef null, i32 noundef 0)
  %29 = icmp ne i32 %28, 0
  br i1 %29, label %30, label %32

30:                                               ; preds = %23
  %31 = call ptr @_(ptr noundef @.str.55)
  call void (ptr, ...) @die(ptr noundef %31) #10
  unreachable

32:                                               ; preds = %23
  %33 = load ptr, ptr %13, align 8, !tbaa !11
  call void @free(ptr noundef %33) #9
  %34 = getelementptr inbounds nuw %struct.pattern_list, ptr %12, i32 0, i32 4
  %35 = load i32, ptr %34, align 8, !tbaa !48
  %36 = icmp ne i32 %35, 0
  br i1 %36, label %39, label %37

37:                                               ; preds = %32
  %38 = call ptr @_(ptr noundef @.str.56)
  call void (ptr, ...) @die(ptr noundef %38) #10
  unreachable

39:                                               ; preds = %32
  store ptr null, ptr %10, align 8, !tbaa !51
  %40 = getelementptr inbounds nuw %struct.pattern_list, ptr %12, i32 0, i32 6
  %41 = call ptr @hashmap_iter_first(ptr noundef %40, ptr noundef %11)
  %42 = call ptr @container_of_or_null_offset(ptr noundef %41, i64 noundef 0)
  store ptr %42, ptr %10, align 8, !tbaa !51
  br label %43

43:                                               ; preds = %68, %39
  %44 = load ptr, ptr %10, align 8, !tbaa !51
  %45 = icmp ne ptr %44, null
  br i1 %45, label %46, label %71

46:                                               ; preds = %43
  %47 = load ptr, ptr %7, align 8, !tbaa !96
  %48 = getelementptr inbounds nuw %struct.pattern_list, ptr %47, i32 0, i32 6
  %49 = load ptr, ptr %10, align 8, !tbaa !51
  %50 = getelementptr inbounds nuw %struct.pattern_entry, ptr %49, i32 0, i32 1
  %51 = load ptr, ptr %50, align 8, !tbaa !53
  %52 = call i32 @hashmap_contains_parent(ptr noundef %48, ptr noundef %51, ptr noundef %9)
  %53 = icmp ne i32 %52, 0
  br i1 %53, label %54, label %62

54:                                               ; preds = %46
  %55 = load ptr, ptr %7, align 8, !tbaa !96
  %56 = getelementptr inbounds nuw %struct.pattern_list, ptr %55, i32 0, i32 7
  %57 = load ptr, ptr %10, align 8, !tbaa !51
  %58 = getelementptr inbounds nuw %struct.pattern_entry, ptr %57, i32 0, i32 1
  %59 = load ptr, ptr %58, align 8, !tbaa !53
  %60 = call i32 @hashmap_contains_parent(ptr noundef %56, ptr noundef %59, ptr noundef %9)
  %61 = icmp ne i32 %60, 0
  br i1 %61, label %67, label %62

62:                                               ; preds = %54, %46
  call void @strbuf_setlen(ptr noundef %9, i64 noundef 0)
  %63 = load ptr, ptr %10, align 8, !tbaa !51
  %64 = getelementptr inbounds nuw %struct.pattern_entry, ptr %63, i32 0, i32 1
  %65 = load ptr, ptr %64, align 8, !tbaa !53
  call void @strbuf_addstr(ptr noundef %9, ptr noundef %65)
  %66 = load ptr, ptr %7, align 8, !tbaa !96
  call void @insert_recursive_pattern(ptr noundef %66, ptr noundef %9)
  br label %67

67:                                               ; preds = %62, %54
  br label %68

68:                                               ; preds = %67
  %69 = call ptr @hashmap_iter_next(ptr noundef %11)
  %70 = call ptr @container_of_or_null_offset(ptr noundef %69, i64 noundef 0)
  store ptr %70, ptr %10, align 8, !tbaa !51
  br label %43, !llvm.loop !170

71:                                               ; preds = %43
  call void @clear_pattern_list(ptr noundef %12)
  call void @strbuf_release(ptr noundef %9)
  call void @llvm.lifetime.end.p0(i64 8, ptr %13) #9
  call void @llvm.lifetime.end.p0(i64 128, ptr %12) #9
  call void @llvm.lifetime.end.p0(i64 24, ptr %11) #9
  call void @llvm.lifetime.end.p0(i64 8, ptr %10) #9
  call void @llvm.lifetime.end.p0(i64 24, ptr %9) #9
  ret void
}

; Function Attrs: nounwind uwtable
define internal i32 @modify_pattern_list(ptr noundef %0, i32 noundef %1, i32 noundef %2) #0 {
  %4 = alloca ptr, align 8
  %5 = alloca i32, align 4
  %6 = alloca i32, align 4
  %7 = alloca i32, align 4
  %8 = alloca i32, align 4
  %9 = alloca ptr, align 8
  store ptr %0, ptr %4, align 8, !tbaa !163
  store i32 %1, ptr %5, align 4, !tbaa !4
  store i32 %2, ptr %6, align 4, !tbaa !4
  call void @llvm.lifetime.start.p0(i64 4, ptr %7) #9
  call void @llvm.lifetime.start.p0(i64 4, ptr %8) #9
  store i32 0, ptr %8, align 4, !tbaa !4
  call void @llvm.lifetime.start.p0(i64 8, ptr %9) #9
  %10 = call ptr @xcalloc(i64 noundef 1, i64 noundef 128)
  store ptr %10, ptr %9, align 8, !tbaa !96
  %11 = load i32, ptr %6, align 4, !tbaa !4
  switch i32 %11, label %52 [
    i32 1, label %12
    i32 0, label %36
  ]

12:                                               ; preds = %3
  %13 = load i32, ptr @core_sparse_checkout_cone, align 4, !tbaa !4
  %14 = icmp ne i32 %13, 0
  br i1 %14, label %15, label %25

15:                                               ; preds = %12
  %16 = load ptr, ptr %4, align 8, !tbaa !163
  %17 = getelementptr inbounds nuw %struct.strvec, ptr %16, i32 0, i32 1
  %18 = load i64, ptr %17, align 8, !tbaa !165
  %19 = trunc i64 %18 to i32
  %20 = load ptr, ptr %4, align 8, !tbaa !163
  %21 = getelementptr inbounds nuw %struct.strvec, ptr %20, i32 0, i32 0
  %22 = load ptr, ptr %21, align 8, !tbaa !149
  %23 = load ptr, ptr %9, align 8, !tbaa !96
  %24 = load i32, ptr %5, align 4, !tbaa !4
  call void @add_patterns_cone_mode(i32 noundef %19, ptr noundef %22, ptr noundef %23, i32 noundef %24)
  br label %35

25:                                               ; preds = %12
  %26 = load ptr, ptr %4, align 8, !tbaa !163
  %27 = getelementptr inbounds nuw %struct.strvec, ptr %26, i32 0, i32 1
  %28 = load i64, ptr %27, align 8, !tbaa !165
  %29 = trunc i64 %28 to i32
  %30 = load ptr, ptr %4, align 8, !tbaa !163
  %31 = getelementptr inbounds nuw %struct.strvec, ptr %30, i32 0, i32 0
  %32 = load ptr, ptr %31, align 8, !tbaa !149
  %33 = load ptr, ptr %9, align 8, !tbaa !96
  %34 = load i32, ptr %5, align 4, !tbaa !4
  call void @add_patterns_literal(i32 noundef %29, ptr noundef %32, ptr noundef %33, i32 noundef %34)
  br label %35

35:                                               ; preds = %25, %15
  br label %52

36:                                               ; preds = %3
  %37 = load ptr, ptr %9, align 8, !tbaa !96
  %38 = load ptr, ptr %4, align 8, !tbaa !163
  %39 = getelementptr inbounds nuw %struct.strvec, ptr %38, i32 0, i32 1
  %40 = load i64, ptr %39, align 8, !tbaa !165
  %41 = trunc i64 %40 to i32
  %42 = load ptr, ptr %4, align 8, !tbaa !163
  %43 = getelementptr inbounds nuw %struct.strvec, ptr %42, i32 0, i32 0
  %44 = load ptr, ptr %43, align 8, !tbaa !149
  %45 = load i32, ptr %5, align 4, !tbaa !4
  %46 = icmp ne i32 %45, 0
  br i1 %46, label %47, label %49

47:                                               ; preds = %36
  %48 = load ptr, ptr @stdin, align 8, !tbaa !65
  br label %50

49:                                               ; preds = %36
  br label %50

50:                                               ; preds = %49, %47
  %51 = phi ptr [ %48, %47 ], [ null, %49 ]
  call void @add_patterns_from_input(ptr noundef %37, i32 noundef %41, ptr noundef %44, ptr noundef %51)
  br label %52

52:                                               ; preds = %3, %50, %35
  %53 = load i32, ptr @core_apply_sparse_checkout, align 4, !tbaa !4
  %54 = icmp ne i32 %53, 0
  br i1 %54, label %57, label %55

55:                                               ; preds = %52
  %56 = call i32 @set_config(i32 noundef 1)
  store i32 1, ptr @core_apply_sparse_checkout, align 4, !tbaa !4
  store i32 1, ptr %8, align 4, !tbaa !4
  br label %57

57:                                               ; preds = %55, %52
  %58 = load ptr, ptr %9, align 8, !tbaa !96
  %59 = call i32 @write_patterns_and_update(ptr noundef %58)
  store i32 %59, ptr %7, align 4, !tbaa !4
  %60 = load i32, ptr %7, align 4, !tbaa !4
  %61 = icmp ne i32 %60, 0
  br i1 %61, label %62, label %67

62:                                               ; preds = %57
  %63 = load i32, ptr %8, align 4, !tbaa !4
  %64 = icmp ne i32 %63, 0
  br i1 %64, label %65, label %67

65:                                               ; preds = %62
  %66 = call i32 @set_config(i32 noundef 0)
  br label %67

67:                                               ; preds = %65, %62, %57
  %68 = load ptr, ptr %9, align 8, !tbaa !96
  call void @clear_pattern_list(ptr noundef %68)
  %69 = load ptr, ptr %9, align 8, !tbaa !96
  call void @free(ptr noundef %69) #9
  %70 = load i32, ptr %7, align 4, !tbaa !4
  call void @llvm.lifetime.end.p0(i64 8, ptr %9) #9
  call void @llvm.lifetime.end.p0(i64 4, ptr %8) #9
  call void @llvm.lifetime.end.p0(i64 4, ptr %7) #9
  ret i32 %70
}