; Function Attrs: nounwind uwtable
define internal fastcc i32 @modify_pattern_list(ptr noundef nonnull readonly captures(none) %0, i32 noundef %1, i32 noundef range(i32 0, 2) %2) unnamed_addr #0 {
  %4 = alloca %struct.strbuf, align 8
  %5 = alloca %struct.hashmap_iter, align 8
  %6 = alloca %struct.pattern_list, align 8
  %7 = tail call ptr @xcalloc(i64 noundef 1, i64 noundef 128) #13
  %trunc = trunc nuw i32 %2 to i1
  br i1 %trunc, label %8, label %57

8:                                                ; preds = %3
  %9 = load i32, ptr @core_sparse_checkout_cone, align 4, !tbaa !37
  %.not19 = icmp eq i32 %9, 0
  %10 = getelementptr inbounds nuw i8, ptr %0, i64 8
  %11 = load i64, ptr %10, align 8, !tbaa !140
  br i1 %.not19, label %48, label %12

12:                                               ; preds = %8
  %13 = trunc i64 %11 to i32
  %14 = load ptr, ptr %0, align 8, !tbaa !130
  call void @llvm.lifetime.start.p0(i64 24, ptr nonnull %4) #13
  call void @llvm.memcpy.p0.p0.i64(ptr noundef nonnull align 8 dereferenceable(24) %4, ptr noundef nonnull align 8 dereferenceable(24) @__const.check_rules.unquoted, i64 24, i1 false)
  call void @llvm.lifetime.start.p0(i64 24, ptr nonnull %5) #13
  call void @llvm.lifetime.start.p0(i64 128, ptr nonnull %6) #13
  %15 = tail call ptr @get_sparse_checkout_filename() #13
  %.not.i = icmp eq i32 %1, 0
  %16 = load ptr, ptr @stdin, align 8
  %17 = select i1 %.not.i, ptr null, ptr %16
  tail call fastcc void @add_patterns_from_input(ptr noundef %7, i32 noundef %13, ptr noundef readonly %14, ptr noundef %17)
  call void @llvm.memset.p0.i64(ptr noundef nonnull align 8 dereferenceable(128) %6, i8 0, i64 128, i1 false)
  %18 = load i32, ptr @core_sparse_checkout_cone, align 4, !tbaa !37
  %19 = getelementptr inbounds nuw i8, ptr %6, i64 24
  store i32 %18, ptr %19, align 8, !tbaa !38
  %20 = call i32 @add_patterns_from_file_to_list(ptr noundef %15, ptr noundef nonnull @.str.8, i32 noundef 0, ptr noundef nonnull %6, ptr noundef null, i32 noundef 0) #13
  %.not12.i = icmp eq i32 %20, 0
  br i1 %.not12.i, label %23, label %21

21:                                               ; preds = %12
  %22 = call fastcc ptr @_(ptr noundef nonnull @.str.55)
  call void (ptr, ...) @die(ptr noundef %22) #14
  unreachable

23:                                               ; preds = %12
  call void @free(ptr noundef %15) #13
  %24 = load i32, ptr %19, align 8, !tbaa !38
  %.not13.i = icmp eq i32 %24, 0
  br i1 %.not13.i, label %25, label %27

25:                                               ; preds = %23
  %26 = call fastcc ptr @_(ptr noundef nonnull @.str.56)
  call void (ptr, ...) @die(ptr noundef %26) #14
  unreachable

27:                                               ; preds = %23
  %28 = getelementptr inbounds nuw i8, ptr %6, i64 32
  call void @hashmap_iter_init(ptr noundef nonnull %28, ptr noundef nonnull %5) #13
  %29 = call ptr @hashmap_iter_next(ptr noundef nonnull %5) #13
  %.not1417.i = icmp eq ptr %29, null
  br i1 %.not1417.i, label %add_patterns_cone_mode.exit, label %.lr.ph.i

.lr.ph.i:                                         ; preds = %27
  %30 = getelementptr inbounds nuw i8, ptr %7, i64 32
  %31 = getelementptr inbounds nuw i8, ptr %7, i64 80
  %32 = getelementptr inbounds nuw i8, ptr %4, i64 8
  %33 = getelementptr inbounds nuw i8, ptr %4, i64 16
  br label %34

34:                                               ; preds = %46, %.lr.ph.i
  %.018.i = phi ptr [ %29, %.lr.ph.i ], [ %47, %46 ]
  %35 = getelementptr inbounds nuw i8, ptr %.018.i, i64 16
  %36 = load ptr, ptr %35, align 8, !tbaa !41
  %37 = call i32 @hashmap_contains_parent(ptr noundef nonnull %30, ptr noundef %36, ptr noundef nonnull %4) #13
  %.not15.i = icmp eq i32 %37, 0
  br i1 %.not15.i, label %41, label %38

38:                                               ; preds = %34
  %39 = load ptr, ptr %35, align 8, !tbaa !41
  %40 = call i32 @hashmap_contains_parent(ptr noundef nonnull %31, ptr noundef %39, ptr noundef nonnull %4) #13
  %.not16.i = icmp eq i32 %40, 0
  br i1 %.not16.i, label %41, label %46

41:                                               ; preds = %38, %34
  store i64 0, ptr %32, align 8, !tbaa !100
  %42 = load ptr, ptr %33, align 8, !tbaa !97
  %.not9.i.i = icmp eq ptr %42, @strbuf_slopbuf
  br i1 %.not9.i.i, label %strbuf_setlen.exit.i, label %43

43:                                               ; preds = %41
  store i8 0, ptr %42, align 1, !tbaa !99
  br label %strbuf_setlen.exit.i

strbuf_setlen.exit.i:                             ; preds = %43, %41
  %44 = load ptr, ptr %35, align 8, !tbaa !41
  %45 = call i64 @strlen(ptr noundef nonnull dereferenceable(1) %44) #15
  call void @strbuf_add(ptr noundef nonnull %4, ptr noundef nonnull %44, i64 noundef %45) #13
  call fastcc void @insert_recursive_pattern(ptr noundef nonnull %7, ptr noundef %4)
  br label %46

46:                                               ; preds = %strbuf_setlen.exit.i, %38
  %47 = call ptr @hashmap_iter_next(ptr noundef nonnull %5) #13
  %.not14.i = icmp eq ptr %47, null
  br i1 %.not14.i, label %add_patterns_cone_mode.exit, label %34, !llvm.loop !144

add_patterns_cone_mode.exit:                      ; preds = %46, %27
  call void @clear_pattern_list(ptr noundef nonnull %6) #13
  call void @strbuf_release(ptr noundef nonnull %4) #13
  call void @llvm.lifetime.end.p0(i64 128, ptr nonnull %6) #13
  call void @llvm.lifetime.end.p0(i64 24, ptr nonnull %5) #13
  call void @llvm.lifetime.end.p0(i64 24, ptr nonnull %4) #13
  br label %64

48:                                               ; preds = %8
  %49 = load ptr, ptr %0, align 8, !tbaa !130
  %50 = tail call ptr @get_sparse_checkout_filename() #13
  %51 = tail call i32 @add_patterns_from_file_to_list(ptr noundef %50, ptr noundef nonnull @.str.8, i32 noundef 0, ptr noundef %7, ptr noundef null, i32 noundef 0) #13
  %.not.i21 = icmp eq i32 %51, 0
  br i1 %.not.i21, label %add_patterns_literal.exit, label %52

52:                                               ; preds = %48
  %53 = tail call fastcc ptr @_(ptr noundef nonnull @.str.55)
  tail call void (ptr, ...) @die(ptr noundef %53) #14
  unreachable

add_patterns_literal.exit:                        ; preds = %48
  %54 = trunc i64 %11 to i32
  tail call void @free(ptr noundef %50) #13
  %.not6.i = icmp eq i32 %1, 0
  %55 = load ptr, ptr @stdin, align 8
  %56 = select i1 %.not6.i, ptr null, ptr %55
  tail call fastcc void @add_patterns_from_input(ptr noundef %7, i32 noundef %54, ptr noundef readonly %49, ptr noundef %56)
  br label %64

57:                                               ; preds = %3
  %58 = getelementptr inbounds nuw i8, ptr %0, i64 8
  %59 = load i64, ptr %58, align 8, !tbaa !140
  %60 = trunc i64 %59 to i32
  %61 = load ptr, ptr %0, align 8, !tbaa !130
  %.not = icmp eq i32 %1, 0
  %62 = load ptr, ptr @stdin, align 8
  %63 = select i1 %.not, ptr null, ptr %62
  tail call fastcc void @add_patterns_from_input(ptr noundef %7, i32 noundef %60, ptr noundef %61, ptr noundef %63)
  br label %64

64:                                               ; preds = %add_patterns_cone_mode.exit, %add_patterns_literal.exit, %57
  %65 = load i32, ptr @core_apply_sparse_checkout, align 4, !tbaa !37
  %.not20 = icmp eq i32 %65, 0
  br i1 %.not20, label %67, label %.thread

.thread:                                          ; preds = %64
  %66 = call fastcc i32 @write_patterns_and_update(ptr noundef %7)
  br label %72

67:                                               ; preds = %64
  %68 = call fastcc i32 @set_config(i32 noundef 1)
  store i32 1, ptr @core_apply_sparse_checkout, align 4, !tbaa !37
  %69 = call fastcc i32 @write_patterns_and_update(ptr noundef %7)
  %.not23 = icmp eq i32 %69, 0
  br i1 %.not23, label %72, label %70

70:                                               ; preds = %67
  %71 = call fastcc i32 @set_config(i32 noundef 0)
  br label %72

72:                                               ; preds = %.thread, %70, %67
  %73 = phi i32 [ %66, %.thread ], [ %69, %70 ], [ 0, %67 ]
  call void @clear_pattern_list(ptr noundef %7) #13
  call void @free(ptr noundef %7) #13
  ret i32 %73
}